; Function Attrs: nounwind uwtable
define hidden i32 @mbedtls_pk_sign_restartable(ptr noundef %0, i32 noundef %1, ptr noundef %2, i64 noundef %3, ptr noundef %4, i64 noundef %5, ptr noundef %6, ptr noundef %7, ptr noundef %8, ptr noundef readnone captures(none) %9) local_unnamed_addr #1 {
  %11 = icmp ne i32 %1, 0
  %12 = icmp ne i64 %3, 0
  %or.cond = or i1 %11, %12
  %13 = icmp eq ptr %2, null
  %or.cond3 = and i1 %13, %or.cond
  br i1 %or.cond3, label %27, label %14

14:                                               ; preds = %10
  %15 = load ptr, ptr %0, align 8, !tbaa !3
  %16 = icmp eq ptr %15, null
  br i1 %16, label %27, label %17

17:                                               ; preds = %14
  %.not.i = icmp eq i64 %3, 0
  br i1 %.not.i, label %pk_hashlen_helper.exit, label %pk_hashlen_helper.exit.thread

pk_hashlen_helper.exit:                           ; preds = %17
  %18 = tail call ptr @mbedtls_md_info_from_type(i32 noundef %1) #7
  %19 = tail call zeroext i8 @mbedtls_md_get_size(ptr noundef %18) #7
  %.not = icmp eq i8 %19, 0
  br i1 %.not, label %27, label %pk_hashlen_helper.exit.pk_hashlen_helper.exit.thread_crit_edge

pk_hashlen_helper.exit.pk_hashlen_helper.exit.thread_crit_edge: ; preds = %pk_hashlen_helper.exit
  %20 = zext i8 %19 to i64
  %.pre = load ptr, ptr %0, align 8, !tbaa !3
  br label %pk_hashlen_helper.exit.thread

pk_hashlen_helper.exit.thread:                    ; preds = %pk_hashlen_helper.exit.pk_hashlen_helper.exit.thread_crit_edge, %17
  %21 = phi ptr [ %.pre, %pk_hashlen_helper.exit.pk_hashlen_helper.exit.thread_crit_edge ], [ %15, %17 ]
  %.01923 = phi i64 [ %20, %pk_hashlen_helper.exit.pk_hashlen_helper.exit.thread_crit_edge ], [ %3, %17 ]
  %22 = getelementptr inbounds nuw i8, ptr %21, i64 40
  %23 = load ptr, ptr %22, align 8, !tbaa !47
  %24 = icmp eq ptr %23, null
  br i1 %24, label %27, label %25

25:                                               ; preds = %pk_hashlen_helper.exit.thread
  %26 = tail call i32 %23(ptr noundef nonnull %0, i32 noundef %1, ptr noundef %2, i64 noundef %.01923, ptr noundef %4, i64 noundef %5, ptr noundef %6, ptr noundef %7, ptr noundef %8) #7
  br label %27

27:                                               ; preds = %pk_hashlen_helper.exit.thread, %14, %pk_hashlen_helper.exit, %10, %25
  %.0 = phi i32 [ %26, %25 ], [ -16000, %10 ], [ -16000, %pk_hashlen_helper.exit ], [ -16000, %14 ], [ -16128, %pk_hashlen_helper.exit.thread ]
  ret i32 %.0
}